; Function Attrs: mustprogress uwtable
define dso_local void @_ZN11flatbuffers13BaseGenerator13FullNamespaceB5cxx11EPKcRKNS_9NamespaceE(ptr noalias nonnull sret(%"class.std::__cxx11::basic_string") align 8 %agg.result, ptr noundef %separator, ptr nocapture noundef nonnull readonly align 8 dereferenceable(32) %ns) local_unnamed_addr #0 align 2 personality ptr @__gxx_personality_v0 {
entry:
  tail call void @_ZNSt7__cxx1112basic_stringIcSt11char_traitsIcESaIcEEC1Ev(ptr noundef nonnull align 8 dereferenceable(32) %agg.result) #12
  %0 = load ptr, ptr %ns, align 8
  %_M_finish.i = getelementptr inbounds i8, ptr %ns, i64 8
  %1 = load ptr, ptr %_M_finish.i, align 8
  %cmp.i.not4 = icmp eq ptr %0, %1
  br i1 %cmp.i.not4, label %nrvo.skipdtor, label %for.body

for.body:                                         ; preds = %entry, %for.inc
  %it.sroa.0.05 = phi ptr [ %incdec.ptr.i, %for.inc ], [ %0, %entry ]
  %call4 = tail call noundef i64 @_ZNKSt7__cxx1112basic_stringIcSt11char_traitsIcESaIcEE6lengthEv(ptr noundef nonnull align 8 dereferenceable(32) %agg.result) #12
  %tobool.not = icmp eq i64 %call4, 0
  br i1 %tobool.not, label %if.end, label %if.then

if.then:                                          ; preds = %for.body
  %call5 = invoke noundef nonnull align 8 dereferenceable(32) ptr @_ZNSt7__cxx1112basic_stringIcSt11char_traitsIcESaIcEEpLEPKc(ptr noundef nonnull align 8 dereferenceable(32) %agg.result, ptr noundef %separator)
          to label %if.end unwind label %lpad

lpad:                                             ; preds = %if.end, %if.then
  %2 = landingpad { ptr, i32 }
          cleanup
  tail call void @_ZNSt7__cxx1112basic_stringIcSt11char_traitsIcESaIcEED1Ev(ptr noundef nonnull align 8 dereferenceable(32) %agg.result) #12
  resume { ptr, i32 } %2

if.end:                                           ; preds = %if.then, %for.body
  %call8 = invoke noundef nonnull align 8 dereferenceable(32) ptr @_ZNSt7__cxx1112basic_stringIcSt11char_traitsIcESaIcEEpLERKS4_(ptr noundef nonnull align 8 dereferenceable(32) %agg.result, ptr noundef nonnull align 8 dereferenceable(32) %it.sroa.0.05)
          to label %for.inc unwind label %lpad

for.inc:                                          ; preds = %if.end
  %incdec.ptr.i = getelementptr inbounds i8, ptr %it.sroa.0.05, i64 32
  %3 = load ptr, ptr %_M_finish.i, align 8
  %cmp.i.not = icmp eq ptr %incdec.ptr.i, %3
  br i1 %cmp.i.not, label %nrvo.skipdtor, label %for.body, !llvm.loop !13

nrvo.skipdtor:                                    ; preds = %for.inc, %entry
  ret void
}